******************************************************************************
               TMS320C6x Linker PC v7.4.2                      
******************************************************************************
>> Linked Mon May 16 23:53:01 2016

OUTPUT FILE NAME:   <powsp_674LE_LE_ELF.out>
ENTRY POINT SYMBOL: "_c_int00"  address: 00827c60


MEMORY CONFIGURATION

         name            origin    length      used     unused   attr    fill
----------------------  --------  ---------  --------  --------  ----  --------
  L2SRAM                00800000   00080000  00032c41  0004d3bf  RW X
  MSMCSRAM              0c000000   00200000  00000000  00200000  RW X


SEGMENT ALLOCATION MAP

run origin  load origin   length   init length attrs members
----------  ----------- ---------- ----------- ----- -------
00800000    00800000    0001de08   00000000    rw-
  00800000    00800000    00011e08   00000000    rw- .far
  00811e08    00811e08    0000c000   00000000    rw- .stack
0081de08    0081de08    00000018   00000018    rw-
  0081de08    0081de08    00000018   00000018    rw- .fardata.1
0081de20    0081de20    00012700   0000a700    rwx
  0081de20    0081de20    0000a700   0000a700    rwx .text
  00828520    00828520    00008000   00000000    rw- .sysmem
00830520    00830520    00000864   00000864    rw-
  00830520    00830520    00000864   00000864    rw- .fardata.2
00830d88    00830d88    00000385   00000385    r--
  00830d88    00830d88    00000385   00000385    r-- .const
00831110    00831110    00000120   00000000    rw-
  00831110    00831110    00000120   00000000    rw- .cio
00831230    00831230    0000005c   0000005c    rw-
  00831230    00831230    0000005c   0000005c    rw- .data
008312a0    008312a0    000019bc   000019bc    r-x
  008312a0    008312a0    00000cc0   00000cc0    r-x .kernel_vec
  00831f60    00831f60    00000420   00000420    r-x .kernel_asm
  00832380    00832380    000002a0   000002a0    r-x .kernel_ci
  00832620    00832620    0000063c   0000063c    r-- .cinit


SECTION ALLOCATION MAP

 output                                  attributes/
section   page    origin      length       input sections
--------  ----  ----------  ----------   ----------------
.init_array 
*          0    00800000    00000000     UNINITIALIZED

xdc.meta   0    00800000    00000000     COPY SECTION

.far       0    00800000    00011e08     UNINITIALIZED
                  00800000    00011c60     drvsp.obj (.far)
                  00811c60    00000140     rts6740_elf.lib : defs.obj (.far)
                  00811da0    00000060     driver.obj (.far)
                  00811e00    00000008     rts6740_elf.lib : trgdrv.obj (.far)

.stack     0    00811e08    0000c000     UNINITIALIZED
                  00811e08    00000008     rts6740_elf.lib : boot.obj (.stack)
                  00811e10    0000bff8     --HOLE--

.fardata.1 
*          0    0081de08    00000018     
                  0081de08    00000014     drvsp.obj (.fardata:output)
                  0081de1c    00000004     rts6740_elf.lib : defs.obj (.fardata)

.text      0    0081de20    0000a700     
                  0081de20    00001ba0     powsp_d.obj (.text)
                  0081f9c0    00000740     rts6740_elf.lib : pow.obj (.text:pow)
                  00820100    00000660     driver.obj (.text)
                  00820760    000005c0     rts6740_elf.lib : _printfi.obj (.text:_getarg_diouxp)
                  00820d20    000005c0                     : powf.obj (.text:powf)
                  008212e0    000005a0                     : divd.obj (.text:__c6xabi_divd)
                  00821880    00000460                     : _printfi.obj (.text:_printfi)
                  00821ce0    00000460                     : _printfi.obj (.text:_setfield)
                  00822140    000003a0                     : fputs.obj (.text:fputs)
                  008224e0    00000340     drvsp.obj (.text)
                  00822820    00000320     rts6740_elf.lib : _printfi.obj (.text:_pproc_fge)
                  00822b40    000002e0                     : _printfi.obj (.text:_pproc_fwp)
                  00822e20    000002a0                     : _printfi.obj (.text:ecvt)
                  008230c0    000002a0                     : _printfi.obj (.text:fcvt)
                  00823360    00000280                     : divf.obj (.text:__c6xabi_divf)
                  008235e0    00000280                     : memory.obj (.text:free)
                  00823860    00000260                     : imath64.obj (.text:__c6xabi_divull)
                  00823ac0    00000260                     : _printfi.obj (.text:_pconv_e)
                  00823d20    00000240                     : _printfi.obj (.text:_pproc_diouxp)
                  00823f60    00000220                     : _printfi.obj (.text:_pproc_str)
                  00824180    00000220                     : fputc.obj (.text:fputc)
                  008243a0    00000200                     : _printfi.obj (.text:_pconv_g)
                  008245a0    00000200                     : setvbuf.obj (.text:setvbuf)
                  008247a0    000001c0                     : _printfi.obj (.text:_mcpy)
                  00824960    000001c0                     : fopen.obj (.text:_openfile)
                  00824b20    000001a0                     : imath40.obj (.text:__c6xabi_divul)
                  00824cc0    000001a0                     : frexp.obj (.text:frexp)
                  00824e60    00000180                     : trgdrv.obj (.text:HOSTrename)
                  00824fe0    00000180                     : copy_decompress_rle.obj (.text:__TI_decompress_rle_core)
                  00825160    00000180                     : ldexp.obj (.text:ldexp)
                  008252e0    00000180                     : memory.obj (.text:malloc)
                  00825460    00000180                     : lowlev.obj (.text:open)
                  008255e0    00000160                     : frexpf.obj (.text:frexpf)
                  00825740    00000160                     : ldexpf.obj (.text:ldexpf)
                  008258a0    00000140                     : _printfi.obj (.text:_pproc_fflags)
                  008259e0    00000140                     : lowlev.obj (.text:getdevice)
                  00825b20    00000120                     : fclose.obj (.text:_closefile)
                  00825c40    00000120                     : _printfi.obj (.text:_ltostr)
                  00825d60    00000120                     : fopen.obj (.text:_search_fp)
                  00825e80    00000120                     : fseek.obj (.text:fseek)
                  00825fa0    00000100                     : trgdrv.obj (.text:HOSTlseek)
                  008260a0    00000100                     : fixdlli.obj (.text:__c6xabi_fixdlli)
                  008261a0    00000100                     : autoinit.obj (.text:_auto_init_elf)
                  008262a0    00000100                     : _io_perm.obj (.text:_wrt_ok)
                  008263a0    00000100                     : cpy_tbl.obj (.text:copy_in)
                  008264a0    00000100                     : fprintf.obj (.text:fprintf)
                  008265a0    000000e0                     : trgdrv.obj (.text:HOSTopen)
                  00826680    000000e0                     : fltllif.obj (.text:__c6xabi_fltllif)
                  00826760    000000e0                     : atoi.obj (.text:atoi)
                  00826840    000000e0                     : lowlev.obj (.text:close)
                  00826920    000000e0                     : copy_zero_init.obj (.text:decompress:ZI:__TI_zero_init)
                  00826a00    000000e0                     : ltoa.obj (.text:ltoa)
                  00826ae0    000000e0                     : memset.obj (.text:memset)
                  00826bc0    000000e0                     : printf.obj (.text:printf)
                  00826ca0    000000c0                     : trgdrv.obj (.text:HOSTread)
                  00826d60    000000c0                     : trgdrv.obj (.text:HOSTunlink)
                  00826e20    000000c0                     : trgdrv.obj (.text:HOSTwrite)
                  00826ee0    000000c0                     : divu.obj (.text:__divu)
                  00826fa0    000000c0                     : _printfi.obj (.text:_div)
                  00827060    000000c0                     : fflush.obj (.text:_doflush)
                  00827120    000000c0                     : exit.obj (.text:exit)
                  008271e0    000000c0                     : tls.obj (.text:tls:init:__TI_tls_init)
                  008272a0    000000a0                     : trgdrv.obj (.text:HOSTclose)
                  00827340    000000a0                     : round.obj (.text:__c6xabi_nround)
                  008273e0    000000a0                     : fopen.obj (.text:_cleanup)
                  00827480    000000a0                     : _printfi.obj (.text:_ecpy)
                  00827520    000000a0                     : _printfi.obj (.text:_fcpy)
                  008275c0    000000a0                     : memory.obj (.text:_minit)
                  00827660    000000a0                     : _printfi.obj (.text:_pconv_f)
                  00827700    000000a0                     : lowlev.obj (.text:finddevice)
                  008277a0    000000a0                     : lowlev.obj (.text:lseek)
                  00827840    000000a0                     : memcpy64.obj (.text:memcpy)
                  008278e0    000000a0                     : memory.obj (.text:minsert)
                  00827980    000000a0                     : modf.obj (.text:modf)
                  00827a20    000000a0                     : memory.obj (.text:mremove)
                  00827ac0    000000a0                     : lowlev.obj (.text:write)
                  00827b60    00000080                     : llshift.obj (.text:__c6xabi_llshl)
                  00827be0    00000080                     : roundf.obj (.text:__c6xabi_roundf)
                  00827c60    00000080                     : boot.obj (.text:_c_int00)
                  00827ce0    00000080                     : rand.obj (.text:rand)
                  00827d60    00000080                     : trgmsg.obj (.text:readmsg)
                  00827de0    00000080                     : lowlev.obj (.text:unlink)
                  00827e60    00000060                     : cpp_init.obj (.text:__TI_cpp_init)
                  00827ec0    00000060                     : imath64.obj (.text:_subcull)
                  00827f20    00000060                     : fclose.obj (.text:fclose)
                  00827f80    00000060                     : fopen.obj (.text:fopen)
                  00827fe0    00000060                     : memccpy.obj (.text:memccpy)
                  00828040    00000060                     : modff.obj (.text:modff)
                  008280a0    00000060                     : rand.obj (.text:srand)
                  00828100    00000060                     : lowlev.obj (.text:tabinit)
                  00828160    00000060                     : trgmsg.obj (.text:writemsg)
                  008281c0    00000040                     : frcmpyd_div.obj (.text:__c6xabi_frcmpyd_div)
                  00828200    00000040                     : isinf.obj (.text:__c6xabi_isinf)
                  00828240    00000040                     : _printfi.obj (.text:__c6xabi_isnan)
                  00828280    00000040                     : llshift.obj (.text:__c6xabi_llshru)
                  008282c0    00000040                     : args_main.obj (.text:_args_main)
                  00828300    00000038     mathlib.ae674 : expsp.oe674 (.text)
                  00828338    00000008     --HOLE-- [fill = 0]
                  00828340    00000020     rts6740_elf.lib : errno.obj (.text:__c6xabi_errno_addr)
                  00828360    00000020                     : isinff.obj (.text:__c6xabi_isinff)
                  00828380    00000020                     : negll.obj (.text:__c6xabi_negll)
                  008283a0    00000020                     : trunc.obj (.text:__c6xabi_trunc)
                  008283c0    00000020                     : truncf.obj (.text:__c6xabi_truncf)
                  008283e0    00000020                     : _lock.obj (.text:_nop)
                  00828400    00000020                     : fprintf.obj (.text:_outc)
                  00828420    00000020                     : printf.obj (.text:_outc)
                  00828440    00000020                     : fprintf.obj (.text:_outs)
                  00828460    00000020                     : printf.obj (.text:_outs)
                  00828480    00000020                     : exit.obj (.text:abort)
                  008284a0    00000020                     : copy_decompress_none.obj (.text:decompress:none:__TI_decompress_none)
                  008284c0    00000020                     : copy_decompress_rle.obj (.text:decompress:rle24:__TI_decompress_rle24)
                  008284e0    00000010     mathlib.ae674 : powsp_v.oe674 ($Tramp$S$$powsp_v)
                  008284f0    00000010                   : powsp_c.oe674 ($Tramp$S$$powsp_c)
                  00828500    00000010                   : powsp.oe674 ($Tramp$S$$powsp)
                  00828510    00000010     --HOLE-- [fill = 0]

.sysmem    0    00828520    00008000     UNINITIALIZED
                  00828520    00000008     rts6740_elf.lib : memory.obj (.sysmem)
                  00828528    00007ff8     --HOLE--

.fardata.2 
*          0    00830520    00000864     
                  00830520    000001e0     rts6740_elf.lib : defs.obj (.fardata:_ftable)
                  00830700    00000190     powsp_d.obj (.fardata:a)
                  00830890    00000190     powsp_d.obj (.fardata:b)
                  00830a20    000000a0     rts6740_elf.lib : lowlev.obj (.fardata:_stream)
                  00830ac0    00000088                     : pow.obj (.fardata:A1$1)
                  00830b48    00000078                     : lowlev.obj (.fardata:_device)
                  00830bc0    00000044                     : powf.obj (.fardata:A1$1)
                  00830c04    00000004                     : errno.obj (.fardata)
                  00830c08    00000040                     : pow.obj (.fardata:A2$2)
                  00830c48    00000040     mathlib.ae674 : tables.oe674 (.fardata:ti_math_logtable)
                  00830c88    00000038     rts6740_elf.lib : pow.obj (.fardata:Q$4)
                  00830cc0    00000020                     : powf.obj (.fardata:A2$2)
                  00830ce0    00000020                     : pow.obj (.fardata:P$3)
                  00830d00    00000020     mathlib.ae674 : tables.oe674 (.fardata:ti_math_jTable)
                  00830d20    00000020                   : tables.oe674 (.fardata:ti_math_kTable)
                  00830d40    0000000c     rts6740_elf.lib : powf.obj (.fardata:Q$4)
                  00830d4c    0000000c                     : exit.obj (.fardata)
                  00830d58    0000000c                     : memory.obj (.fardata)
                  00830d64    00000004                     : fopen.obj (.fardata)
                  00830d68    00000008     drvsp.obj (.fardata:input)
                  00830d70    00000008     rts6740_elf.lib : _lock.obj (.fardata)
                  00830d78    00000004                     : powf.obj (.fardata:P$3)
                  00830d7c    00000004                     : lowlev.obj (.fardata)
                  00830d80    00000004                     : rand.obj (.fardata)

.const     0    00830d88    00000385     
                  00830d88    00000203     driver.obj (.const:.string)
                  00830f8b    00000005     --HOLE-- [fill = 0]
                  00830f90    00000101     rts6740_elf.lib : ctype.obj (.const:.string:_ctypes_)
                  00831091    00000059     powsp_d.obj (.const:.string)
                  008310ea    00000023     rts6740_elf.lib : _printfi.obj (.const:.string)

.cio       0    00831110    00000120     UNINITIALIZED
                  00831110    00000120     rts6740_elf.lib : trgmsg.obj (.cio)

.data      0    00831230    0000005c     
                  00831230    00000038     mathlib.ae674 : logsp.oe674 (.data)
                  00831268    00000024                   : expsp.oe674 (.data)

.kernel_vec 
*          0    008312a0    00000cc0     
                  008312a0    00000cc0     mathlib.ae674 : powsp_v.oe674 (.text:optvec)

.kernel_asm 
*          0    00831f60    00000420     
                  00831f60    00000180     mathlib.ae674 : expsp.oe674 (.text:optasm)
                  008320e0    00000180                   : logsp.oe674 (.text:optasm)
                  00832260    00000120                   : powsp.oe674 (.text:optasm)

.kernel_ci 
*          0    00832380    000002a0     
                  00832380    000002a0     mathlib.ae674 : powsp_c.oe674 (.text:optci)

.cinit     0    00832620    0000063c     
                  00832620    00000582     (.cinit..fardata.2.load) [load image, compression = rle]
                  00832ba2    00000002     --HOLE-- [fill = 0]
                  00832ba4    00000062     (.cinit..data.load) [load image, compression = rle]
                  00832c06    00000002     --HOLE-- [fill = 0]
                  00832c08    0000001e     (.cinit..fardata.1.load) [load image, compression = rle]
                  00832c26    00000002     --HOLE-- [fill = 0]
                  00832c28    0000000c     (__TI_handler_table)
                  00832c34    00000008     (.cinit..far.load) [load image, compression = zero_init]
                  00832c3c    00000020     (__TI_cinit_table)


LINKER GENERATED COPY TABLES

__TI_cinit_table @ 00832c3c records: 4, size/record: 8, table size: 32
	.fardata.2: load addr=00832620, load size=00000582 bytes, run addr=00830520, run size=00000864 bytes, compression=rle
	.data: load addr=00832ba4, load size=00000062 bytes, run addr=00831230, run size=0000005c bytes, compression=rle
	.fardata.1: load addr=00832c08, load size=0000001e bytes, run addr=0081de08, run size=00000018 bytes, compression=rle
	.far: load addr=00832c34, load size=00000008 bytes, run addr=00800000, run size=00011e08 bytes, compression=zero_init


LINKER GENERATED HANDLER TABLE

__TI_handler_table @ 00832c28 records: 3, size/record: 4, table size: 12
	index: 0, handler: __TI_zero_init
	index: 1, handler: __TI_decompress_rle24
	index: 2, handler: __TI_decompress_none


FAR CALL TRAMPOLINES

callee name               trampoline name
   callee addr  tramp addr   call addr  call info
--------------  -----------  ---------  ----------------
$.text:optvec:mathlib.ae674<powsp_v.oe674>$0x0  $Tramp$S$$powsp_v
   008312a0     008284e0     0081e398   powsp_d.obj (.text)
                             0081e85c   powsp_d.obj (.text)
                             0081ee04   powsp_d.obj (.text)
                             0081f7c0   powsp_d.obj (.text)
$.text:optci:mathlib.ae674<powsp_c.oe674>$0x0  $Tramp$S$$powsp_c
   00832380     008284f0     0081e058   powsp_d.obj (.text)
                             0081e08c   powsp_d.obj (.text)
                             0081e584   powsp_d.obj (.text)
                             0081eac4   powsp_d.obj (.text)
                             0081f6a0   powsp_d.obj (.text)
$.text:optasm:mathlib.ae674<powsp.oe674>$0x0  $Tramp$S$$powsp
   00832260     00828500     0081e00c   powsp_d.obj (.text)
                             0081e038   powsp_d.obj (.text)
                             0081e52c   powsp_d.obj (.text)
                             0081ea60   powsp_d.obj (.text)
                             0081f578   powsp_d.obj (.text)

[3 trampolines]
[14 trampoline calls]


GLOBAL SYMBOLS: SORTED ALPHABETICALLY BY Name 

address    name
--------   ----
00828480   C$$EXIT
008281b8   C$$IO$$
008272a0   HOSTclose
00825fa0   HOSTlseek
008265a0   HOSTopen
00826ca0   HOSTread
00824e60   HOSTrename
00826d60   HOSTunlink
00826e20   HOSTwrite
00831110   __CIOBUF_
00832c3c   __TI_CINIT_Base
00832c5c   __TI_CINIT_Limit
00832c28   __TI_Handler_Table_Base
00832c34   __TI_Handler_Table_Limit
UNDEFED    __TI_INITARRAY_Base
UNDEFED    __TI_INITARRAY_Limit
0081de08   __TI_STACK_END
0000c000   __TI_STACK_SIZE
00000000   __TI_STATIC_BASE
00008000   __TI_SYSMEM_SIZE
UNDEFED    __TI_TLS_INIT_Base
UNDEFED    __TI_TLS_INIT_Limit
00000001   __TI_args_main
00827e60   __TI_cpp_init
008284a0   __TI_decompress_none
008284c0   __TI_decompress_rle24
00830d54   __TI_enable_exit_profile_output
ffffffff   __TI_pprof_out_hndl
ffffffff   __TI_prof_data_size
ffffffff   __TI_prof_data_start
008271e0   __TI_tls_init
00826920   __TI_zero_init
ffffffff   __binit__
008212e0   __c6xabi_divd
00823360   __c6xabi_divf
00826ee0   __c6xabi_divu
00824b20   __c6xabi_divul
00823860   __c6xabi_divull
00828340   __c6xabi_errno_addr
008260a0   __c6xabi_fixdlli
00826680   __c6xabi_fltllif
008281c0   __c6xabi_frcmpyd_div
00828200   __c6xabi_isinf
00828360   __c6xabi_isinff
00827b60   __c6xabi_llshl
00828280   __c6xabi_llshru
00828380   __c6xabi_negll
00827340   __c6xabi_nround
00827be0   __c6xabi_roundf
008283a0   __c6xabi_trunc
008283c0   __c6xabi_truncf
ffffffff   __c_args__
00826ee0   __divu
00830c04   __errno
008282c0   _args_main
00000200   _argsize
008261a0   _auto_init_elf
00827c60   _c_int00
008273e0   _cleanup
00830d4c   _cleanup_ptr
00825b20   _closefile
00830f90   _ctypes_
00827060   _doflush
00830d50   _dtors_ptr
0081de1c   _ft_end
00830520   _ftable
00000420   _kernel_asm_size
000002a0   _kernel_ci_size
00000cc0   _kernel_vec_size
00830d70   _lock
008275c0   _minit
008283e0   _nop
00821880   _printfi
00811e08   _stack
00827ec0   _subcull
00828520   _sys_memory
00811c60   _tmpnams
00830d74   _unlock
008262a0   _wrt_ok
00830700   a
00800000   a_ext
00803e80   a_sc
00828480   abort
00811dfc   all_pass
00826760   atoi
00830890   b
00801f40   b_ext
00804010   b_sc
ffffffff   binit
00826840   close
00000385   const_size
00830d88   const_start
008263a0   copy_in
00811dc0   cycle_counts
008206ac   driver_init
00830c04   errno
00827120   exit
00831fc0   expsp
00827f20   fclose
00811de8   fcn_pass
00827f80   fopen
00811da4   fp
008264a0   fprintf
00824180   fputc
00822140   fputs
008235e0   free
00824cc0   frexp
008255e0   frexpf
00825e80   fseek
008227d4   gimme_random
00830d68   input
0080dde0   input_data
00822504   isequal
00825160   ldexp
00825740   ldexpf
00832120   logsp
008277a0   lseek
00826a00   ltoa
0081df78   main
008252e0   malloc
00827fe0   memccpy
00827840   memcpy
00826ae0   memset
00827980   modf
00828040   modff
00825460   open
0081de08   output
008041a0   output_data
0081f9c0   pow
00820d20   powf
00832260   powsp
00832380   powsp_c
008312a0   powsp_v
008205cc   print_memory_results
008204ac   print_profile_results
00820100   print_test_results
00826bc0   printf
00827ce0   rand
00827d60   readmsg
00827de0   remove
00811da0   seed
008245a0   setvbuf
008280a0   srand
00811db8   t_offset
00811da8   t_start
00811db0   t_stop
00830d00   ti_math_jTable
00830d20   ti_math_kTable
00830c48   ti_math_logtable
00827de0   unlink
00827ac0   write
00828160   writemsg


GLOBAL SYMBOLS: SORTED BY Symbol Address 

address    name
--------   ----
00000000   __TI_STATIC_BASE
00000001   __TI_args_main
00000200   _argsize
000002a0   _kernel_ci_size
00000385   const_size
00000420   _kernel_asm_size
00000cc0   _kernel_vec_size
00008000   __TI_SYSMEM_SIZE
0000c000   __TI_STACK_SIZE
00800000   a_ext
00801f40   b_ext
00803e80   a_sc
00804010   b_sc
008041a0   output_data
0080dde0   input_data
00811c60   _tmpnams
00811da0   seed
00811da4   fp
00811da8   t_start
00811db0   t_stop
00811db8   t_offset
00811dc0   cycle_counts
00811de8   fcn_pass
00811dfc   all_pass
00811e08   _stack
0081de08   __TI_STACK_END
0081de08   output
0081de1c   _ft_end
0081df78   main
0081f9c0   pow
00820100   print_test_results
008204ac   print_profile_results
008205cc   print_memory_results
008206ac   driver_init
00820d20   powf
008212e0   __c6xabi_divd
00821880   _printfi
00822140   fputs
00822504   isequal
008227d4   gimme_random
00823360   __c6xabi_divf
008235e0   free
00823860   __c6xabi_divull
00824180   fputc
008245a0   setvbuf
00824b20   __c6xabi_divul
00824cc0   frexp
00824e60   HOSTrename
00825160   ldexp
008252e0   malloc
00825460   open
008255e0   frexpf
00825740   ldexpf
00825b20   _closefile
00825e80   fseek
00825fa0   HOSTlseek
008260a0   __c6xabi_fixdlli
008261a0   _auto_init_elf
008262a0   _wrt_ok
008263a0   copy_in
008264a0   fprintf
008265a0   HOSTopen
00826680   __c6xabi_fltllif
00826760   atoi
00826840   close
00826920   __TI_zero_init
00826a00   ltoa
00826ae0   memset
00826bc0   printf
00826ca0   HOSTread
00826d60   HOSTunlink
00826e20   HOSTwrite
00826ee0   __c6xabi_divu
00826ee0   __divu
00827060   _doflush
00827120   exit
008271e0   __TI_tls_init
008272a0   HOSTclose
00827340   __c6xabi_nround
008273e0   _cleanup
008275c0   _minit
008277a0   lseek
00827840   memcpy
00827980   modf
00827ac0   write
00827b60   __c6xabi_llshl
00827be0   __c6xabi_roundf
00827c60   _c_int00
00827ce0   rand
00827d60   readmsg
00827de0   remove
00827de0   unlink
00827e60   __TI_cpp_init
00827ec0   _subcull
00827f20   fclose
00827f80   fopen
00827fe0   memccpy
00828040   modff
008280a0   srand
00828160   writemsg
008281b8   C$$IO$$
008281c0   __c6xabi_frcmpyd_div
00828200   __c6xabi_isinf
00828280   __c6xabi_llshru
008282c0   _args_main
00828340   __c6xabi_errno_addr
00828360   __c6xabi_isinff
00828380   __c6xabi_negll
008283a0   __c6xabi_trunc
008283c0   __c6xabi_truncf
008283e0   _nop
00828480   C$$EXIT
00828480   abort
008284a0   __TI_decompress_none
008284c0   __TI_decompress_rle24
00828520   _sys_memory
00830520   _ftable
00830700   a
00830890   b
00830c04   __errno
00830c04   errno
00830c48   ti_math_logtable
00830d00   ti_math_jTable
00830d20   ti_math_kTable
00830d4c   _cleanup_ptr
00830d50   _dtors_ptr
00830d54   __TI_enable_exit_profile_output
00830d68   input
00830d70   _lock
00830d74   _unlock
00830d88   const_start
00830f90   _ctypes_
00831110   __CIOBUF_
008312a0   powsp_v
00831fc0   expsp
00832120   logsp
00832260   powsp
00832380   powsp_c
00832c28   __TI_Handler_Table_Base
00832c34   __TI_Handler_Table_Limit
00832c3c   __TI_CINIT_Base
00832c5c   __TI_CINIT_Limit
ffffffff   __TI_pprof_out_hndl
ffffffff   __TI_prof_data_size
ffffffff   __TI_prof_data_start
ffffffff   __binit__
ffffffff   __c_args__
ffffffff   binit
UNDEFED    __TI_INITARRAY_Base
UNDEFED    __TI_INITARRAY_Limit
UNDEFED    __TI_TLS_INIT_Base
UNDEFED    __TI_TLS_INIT_Limit

[152 symbols]
