******************************************************************************
               TMS320C6x Linker PC v7.4.2                      
******************************************************************************
>> Linked Mon May 16 23:47:14 2016

OUTPUT FILE NAME:   <expsp_674LE_LE_COFF.out>
ENTRY POINT SYMBOL: "_c_int00"  address: 00826580


MEMORY CONFIGURATION

         name            origin    length      used     unused   attr    fill
----------------------  --------  ---------  --------  --------  ----  --------
  L2SRAM                00800000   00080000  0002ffbd  00050043  RW X
  MSMCSRAM              0c000000   00200000  00000000  00200000  RW X


SECTION ALLOCATION MAP

 output                                  attributes/
section   page    origin      length       input sections
--------  ----  ----------  ----------   ----------------
.pinit     0    00800000    00000000     UNINITIALIZED

.neardata 
*          0    00800000    00000000     UNINITIALIZED

.rodata    0    00800000    00000000     UNINITIALIZED

.bss       0    00800000    00000000     UNINITIALIZED

xdc.meta   0    00800000    00000000     COPY SECTION

.far       0    00800000    00012538     UNINITIALIZED
                  00800000    00011c80     drvsp.obj (.far)
                  00811c80    00000324     expsp_d.obj (.far)
                  00811fa4    00000004     rts6740.lib : errno.obj (.far)
                  00811fa8    00000324                 : defs.obj (.far)
                  008122cc    00000004                 : fopen.obj (.far)
                  008122d0    0000011c                 : lowlev.obj (.far)
                  008123ec    00000004     --HOLE--
                  008123f0    000000a0     mathlib.a674 : tables.o674 (.far)
                  00812490    00000060     driver.obj (.far)
                  008124f0    0000001c     rts6740.lib : expf.obj (.far)
                  0081250c    0000000c                 : exit.obj (.far)
                  00812518    00000008                 : _lock.obj (.far)
                  00812520    00000008                 : memory.obj (.far)
                  00812528    00000008                 : rand.obj (.far)
                  00812530    00000008                 : trgdrv.obj (.far)

.stack     0    00812538    0000c000     UNINITIALIZED
                  00812538    00000008     rts6740.lib : boot.obj (.stack)
                  00812540    0000bff8     --HOLE--

.text      0    0081e540    000088c0     
                  0081e540    000012c0     expsp_d.obj (.text)
                  0081f800    00000660     driver.obj (.text)
                  0081fe60    000005a0     rts6740.lib : divd.obj (.text:__divd)
                  00820400    00000580                 : _printfi.obj (.text:__getarg_diouxp)
                  00820980    00000440                 : _printfi.obj (.text:__printfi)
                  00820dc0    00000440                 : _printfi.obj (.text:__setfield)
                  00821200    000003a0                 : fputs.obj (.text:_fputs)
                  008215a0    00000340     drvsp.obj (.text)
                  008218e0    00000320     rts6740.lib : _printfi.obj (.text:__pproc_fge)
                  00821c00    000002c0                 : _printfi.obj (.text:__pproc_fwp)
                  00821ec0    000002a0                 : _printfi.obj (.text:_ecvt)
                  00822160    000002a0                 : _printfi.obj (.text:_fcvt)
                  00822400    00000280                 : divf.obj (.text:__divf)
                  00822680    00000280                 : memory.obj (.text:_free)
                  00822900    00000260                 : imath64.obj (.text:__divull)
                  00822b60    00000260                 : _printfi.obj (.text:__pconv_e)
                  00822dc0    00000240                 : _printfi.obj (.text:__pproc_diouxp)
                  00823000    00000220                 : _printfi.obj (.text:__pproc_str)
                  00823220    00000220                 : fputc.obj (.text:_fputc)
                  00823440    00000200                 : _printfi.obj (.text:__pconv_g)
                  00823640    00000200                 : setvbuf.obj (.text:_setvbuf)
                  00823840    000001c0                 : _printfi.obj (.text:__mcpy)
                  00823a00    000001c0                 : fopen.obj (.text:__openfile)
                  00823bc0    000001c0                 : expf.obj (.text:_expf)
                  00823d80    000001a0                 : imath40.obj (.text:__divul)
                  00823f20    00000180                 : trgdrv.obj (.text:_HOSTrename)
                  008240a0    00000180                 : memory.obj (.text:_malloc)
                  00824220    00000180                 : lowlev.obj (.text:_open)
                  008243a0    00000140                 : _printfi.obj (.text:__pproc_fflags)
                  008244e0    00000140                 : lowlev.obj (.text:_getdevice)
                  00824620    00000120                 : fclose.obj (.text:__closefile)
                  00824740    00000120                 : _printfi.obj (.text:__ltostr)
                  00824860    00000120                 : fopen.obj (.text:__search_fp)
                  00824980    00000120                 : fseek.obj (.text:_fseek)
                  00824aa0    00000120                 : ldexpf.obj (.text:_ldexpf)
                  00824bc0    00000100                 : trgdrv.obj (.text:_HOSTlseek)
                  00824cc0    00000100                 : fixdlli.obj (.text:__fixdlli)
                  00824dc0    00000100                 : _io_perm.obj (.text:__wrt_ok)
                  00824ec0    00000100                 : fprintf.obj (.text:_fprintf)
                  00824fc0    000000e0                 : trgdrv.obj (.text:_HOSTopen)
                  008250a0    000000e0                 : fltllif.obj (.text:__fltllif)
                  00825180    000000e0                 : atoi.obj (.text:_atoi)
                  00825260    000000e0                 : lowlev.obj (.text:_close)
                  00825340    000000e0                 : memset.obj (.text:_memset)
                  00825420    000000e0                 : printf.obj (.text:_printf)
                  00825500    000000c0                 : trgdrv.obj (.text:_HOSTread)
                  008255c0    000000c0                 : trgdrv.obj (.text:_HOSTunlink)
                  00825680    000000c0                 : trgdrv.obj (.text:_HOSTwrite)
                  00825740    000000c0                 : autoinit.obj (.text:__auto_init)
                  00825800    000000c0                 : _printfi.obj (.text:__div)
                  008258c0    000000c0                 : divu.obj (.text:__divu)
                  00825980    000000c0                 : fflush.obj (.text:__doflush)
                  00825a40    000000c0                 : exit.obj (.text:_exit)
                  00825b00    000000c0                 : ltoa.obj (.text:_ltoa)
                  00825bc0    000000a0                 : trgdrv.obj (.text:_HOSTclose)
                  00825c60    000000a0                 : fopen.obj (.text:__cleanup)
                  00825d00    000000a0                 : imath40.obj (.text:__divli)
                  00825da0    000000a0                 : _printfi.obj (.text:__ecpy)
                  00825e40    000000a0                 : _printfi.obj (.text:__fcpy)
                  00825ee0    000000a0                 : fixdli.obj (.text:__fixdli)
                  00825f80    000000a0                 : _printfi.obj (.text:__pconv_f)
                  00826020    000000a0                 : cpy_tbl.obj (.text:_copy_in)
                  008260c0    000000a0                 : lowlev.obj (.text:_finddevice)
                  00826160    000000a0                 : lowlev.obj (.text:_lseek)
                  00826200    000000a0                 : memcpy64.obj (.text:_memcpy)
                  008262a0    000000a0                 : memory.obj (.text:_minsert)
                  00826340    000000a0                 : memory.obj (.text:_mremove)
                  008263e0    000000a0                 : lowlev.obj (.text:_write)
                  00826480    00000080                 : fltlid.obj (.text:__fltlid)
                  00826500    00000080                 : llshift.obj (.text:__llshl)
                  00826580    00000080                 : boot.obj (.text:_c_int00)
                  00826600    00000080                 : rand.obj (.text:_rand)
                  00826680    00000080                 : trgmsg.obj (.text:_readmsg)
                  00826700    00000080                 : lowlev.obj (.text:_unlink)
                  00826780    00000060                 : cpp_init.obj (.text:___TI_cpp_init)
                  008267e0    00000060                 : imath64.obj (.text:__subcull)
                  00826840    00000060                 : fclose.obj (.text:_fclose)
                  008268a0    00000060                 : fopen.obj (.text:_fopen)
                  00826900    00000060                 : memccpy.obj (.text:_memccpy)
                  00826960    00000060                 : modff.obj (.text:_modff)
                  008269c0    00000060                 : rand.obj (.text:_srand)
                  00826a20    00000060                 : lowlev.obj (.text:_tabinit)
                  00826a80    00000060                 : trgmsg.obj (.text:_writemsg)
                  00826ae0    00000040                 : isinf.obj (.text:___isinf)
                  00826b20    00000040                 : _printfi.obj (.text:___isnan)
                  00826b60    00000040                 : args_main.obj (.text:__args_main)
                  00826ba0    00000040                 : frcmpyd_div.obj (.text:__frcmpyd_div)
                  00826be0    00000040                 : llshift.obj (.text:__llshru)
                  00826c20    00000040                 : imath40.obj (.text:__remli)
                  00826c60    00000038     mathlib.a674 : expsp.o674 (.text)
                  00826c98    00000008     --HOLE-- [fill = 0]
                  00826ca0    00000020     rts6740.lib : isinff.obj (.text:___isinff)
                  00826cc0    00000020                 : negll.obj (.text:__negll)
                  00826ce0    00000020                 : _lock.obj (.text:__nop)
                  00826d00    00000020                 : fprintf.obj (.text:__outc)
                  00826d20    00000020                 : printf.obj (.text:__outc)
                  00826d40    00000020                 : fprintf.obj (.text:__outs)
                  00826d60    00000020                 : printf.obj (.text:__outs)
                  00826d80    00000020                 : exit.obj (.text:_abort)
                  00826da0    00000020                 : remove.obj (.text:_remove)
                  00826dc0    00000010     mathlib.a674 : expsp_v.o674 ($Tramp$S$$_expsp_v)
                  00826dd0    00000010                  : expsp_c.o674 ($Tramp$S$$_expsp_c)
                  00826de0    00000010                  : expsp.o674 ($Tramp$S$$_expsp)
                  00826df0    00000010     --HOLE-- [fill = 0]

.sysmem    0    00826e00    00008000     UNINITIALIZED
                  00826e00    00000008     rts6740.lib : memory.obj (.sysmem)
                  00826e08    00007ff8     --HOLE--

.cinit     0    0082ee00    000005bc     
                  0082ee00    0000032c     expsp_d.obj (.cinit)
                  0082f12c    00000004     --HOLE-- [fill = 0]
                  0082f130    000000c0     mathlib.a674 : tables.o674 (.cinit)
                  0082f1f0    0000005c     rts6740.lib : defs.obj (.cinit)
                  0082f24c    00000004     --HOLE-- [fill = 0]
                  0082f250    0000005c                 : lowlev.obj (.cinit)
                  0082f2ac    00000004     --HOLE-- [fill = 0]
                  0082f2b0    00000030     drvsp.obj (.cinit)
                  0082f2e0    0000002c     rts6740.lib : exit.obj (.cinit)
                  0082f30c    00000004     --HOLE-- [fill = 0]
                  0082f310    0000002c                 : memory.obj (.cinit)
                  0082f33c    00000004     --HOLE-- [fill = 0]
                  0082f340    00000024                 : expf.obj (.cinit)
                  0082f364    00000004     --HOLE-- [fill = 0]
                  0082f368    0000001c                 : _lock.obj (.cinit)
                  0082f384    00000004     --HOLE-- [fill = 0]
                  0082f388    00000010                 : rand.obj (.cinit)
                  0082f398    0000000c                 : errno.obj (.cinit)
                  0082f3a4    00000004     --HOLE-- [fill = 0]
                  0082f3a8    0000000c                 : fopen.obj (.cinit)
                  0082f3b4    00000004     --HOLE-- [fill = 0]
                  0082f3b8    00000004     (.pad.cinit) [fill = 0]

.const     0    0082f3c0    00000385     
                  0082f3c0    00000203     driver.obj (.const:.string)
                  0082f5c3    00000002     rts6740.lib : fputs.obj (.const:.string)
                  0082f5c5    00000003     --HOLE-- [fill = 0]
                  0082f5c8    00000101                 : ctype.obj (.const:.string:__ctypes_)
                  0082f6c9    00000059     expsp_d.obj (.const:.string)
                  0082f722    00000023     rts6740.lib : _printfi.obj (.const:.string)

.cio       0    0082f748    00000120     UNINITIALIZED
                  0082f748    00000120     rts6740.lib : trgmsg.obj (.cio)

.data      0    0082f868    00000024     
                  0082f868    00000024     mathlib.a674 : expsp.o674 (.data)

.kernel_vec 
*          0    0082f8a0    000004a0     
                  0082f8a0    000004a0     mathlib.a674 : expsp_v.o674 (.text:optvec)

.kernel_asm 
*          0    0082fd40    00000180     
                  0082fd40    00000180     mathlib.a674 : expsp.o674 (.text:optasm)

.kernel_ci 
*          0    0082fec0    00000120     
                  0082fec0    00000120     mathlib.a674 : expsp_c.o674 (.text:optci)


FAR CALL TRAMPOLINES

callee name               trampoline name
   callee addr  tramp addr   call addr  call info
--------------  -----------  ---------  ----------------
$.text:optvec:mathlib.a674<expsp_v.o674>$0x0  $Tramp$S$$_expsp_v
   0082f8a0     00826dc0     0081e844   expsp_d.obj (.text)
                             0081eb3c   expsp_d.obj (.text)
                             0081ee84   expsp_d.obj (.text)
                             0081f5e8   expsp_d.obj (.text)
$.text:optci:mathlib.a674<expsp_c.o674>$0x0  $Tramp$S$$_expsp_c
   0082fec0     00826dd0     0081e600   expsp_d.obj (.text)
                             0081e640   expsp_d.obj (.text)
                             0081ea24   expsp_d.obj (.text)
                             0081ed2c   expsp_d.obj (.text)
                             0081f4d8   expsp_d.obj (.text)
$.text:optasm:mathlib.a674<expsp.o674>$0x60  $Tramp$S$$_expsp
   0082fda0     00826de0     0081e5c0   expsp_d.obj (.text)
                             0081e5e4   expsp_d.obj (.text)
                             0081ea0c   expsp_d.obj (.text)
                             0081ece4   expsp_d.obj (.text)
                             0081f3b8   expsp_d.obj (.text)

[3 trampolines]
[14 trampoline calls]


GLOBAL SYMBOLS: SORTED ALPHABETICALLY BY Name 

address    name
--------   ----
00800000   $bss
00800000   .bss
ffffffff   .data
ffffffff   .text
00826d80   C$$EXIT
00826ad8   C$$IO$$
00825bc0   _HOSTclose
00824bc0   _HOSTlseek
00824fc0   _HOSTopen
00825500   _HOSTread
00823f20   _HOSTrename
008255c0   _HOSTunlink
00825680   _HOSTwrite
0082f748   __CIOBUF_
0081e538   __STACK_END
0000c000   __STACK_SIZE
00008000   __SYSMEM_SIZE
00000001   __TI_args_main
00826780   ___TI_cpp_init
00812514   ___TI_enable_exit_profile_output
ffffffff   ___TI_pprof_out_hndl
ffffffff   ___TI_prof_data_size
ffffffff   ___TI_prof_data_start
ffffffff   ___binit__
00800000   ___bss__
ffffffff   ___c_args__
0082ee00   ___cinit__
ffffffff   ___data__
ffffffff   ___edata__
00800000   ___end__
ffffffff   ___etext__
00826ae0   ___isinf
00826ca0   ___isinff
ffffffff   ___pinit__
ffffffff   ___text__
00826b60   __args_main
00825740   __auto_init
008258c0   __c6xabi_divu
00825c60   __cleanup
0081250c   __cleanup_ptr
00824620   __closefile
0082f5c8   __ctypes_
0081fe60   __divd
00822400   __divf
00825d00   __divli
008258c0   __divu
00823d80   __divul
00822900   __divull
00825980   __doflush
00812510   __dtors_ptr
00825ee0   __fixdli
00824cc0   __fixdlli
00826480   __fltlid
008250a0   __fltllif
00826ba0   __frcmpyd_div
008122c8   __ft_end
00811fa8   __ftable
00826500   __llshl
00826be0   __llshru
00812518   __lock
00826cc0   __negll
00826ce0   __nop
00820980   __printfi
00826c20   __remli
00812538   __stack
008267e0   __subcull
00826e00   __sys_memory
00812188   __tmpnams
0081251c   __unlock
00824dc0   __wrt_ok
00811c80   _a
00800000   _a_ext
00803e80   _a_sc
00826d80   _abort
008124ec   _all_pass
00000200   _argsize
00825180   _atoi
00801f40   _b_ext
00804010   _b_sc
00826580   _c_int00
00825260   _close
00826020   _copy_in
008124b0   _cycle_counts
0081fdac   _driver_init
00811fa4   _errno
00825a40   _exit
00823bc0   _expf
0082fda0   _expsp
0082fec0   _expsp_c
0082f8a0   _expsp_v
00826840   _fclose
008124d8   _fcn_pass
008268a0   _fopen
00812494   _fp
00824ec0   _fprintf
00823220   _fputc
00821200   _fputs
00822680   _free
00824980   _fseek
00821894   _gimme_random
00811c78   _input
0080ddf8   _input_data
008215c4   _isequal
00000180   _kernel_asm_size
00000120   _kernel_ci_size
000004a0   _kernel_vec_size
00824aa0   _ldexpf
00826160   _lseek
00825b00   _ltoa
0081e540   _main
008240a0   _malloc
00826900   _memccpy
00826200   _memcpy
00825340   _memset
00826960   _modff
00824220   _open
0080dde0   _output
008041a0   _output_data
0081fccc   _print_memory_results
0081fbac   _print_profile_results
0081f800   _print_test_results
00825420   _printf
00823220   _putc
00826600   _rand
00826680   _readmsg
00826da0   _remove
00812490   _seed
00823640   _setvbuf
008269c0   _srand
008124a8   _t_offset
00812498   _t_start
008124a0   _t_stop
00812450   _ti_math_jTable
00812430   _ti_math_kTable
008123f0   _ti_math_logtable
00812470   _ti_math_vTable
00826700   _unlink
008263e0   _write
00826a80   _writemsg
ffffffff   binit
0082ee00   cinit
00000385   const_size
0082f3c0   const_start
ffffffff   edata
00800000   end
ffffffff   etext
ffffffff   pinit


GLOBAL SYMBOLS: SORTED BY Symbol Address 

address    name
--------   ----
00000001   __TI_args_main
00000120   _kernel_ci_size
00000180   _kernel_asm_size
00000200   _argsize
00000385   const_size
000004a0   _kernel_vec_size
00008000   __SYSMEM_SIZE
0000c000   __STACK_SIZE
00800000   $bss
00800000   .bss
00800000   ___bss__
00800000   ___end__
00800000   _a_ext
00800000   end
00801f40   _b_ext
00803e80   _a_sc
00804010   _b_sc
008041a0   _output_data
0080dde0   _output
0080ddf8   _input_data
00811c78   _input
00811c80   _a
00811fa4   _errno
00811fa8   __ftable
00812188   __tmpnams
008122c8   __ft_end
008123f0   _ti_math_logtable
00812430   _ti_math_kTable
00812450   _ti_math_jTable
00812470   _ti_math_vTable
00812490   _seed
00812494   _fp
00812498   _t_start
008124a0   _t_stop
008124a8   _t_offset
008124b0   _cycle_counts
008124d8   _fcn_pass
008124ec   _all_pass
0081250c   __cleanup_ptr
00812510   __dtors_ptr
00812514   ___TI_enable_exit_profile_output
00812518   __lock
0081251c   __unlock
00812538   __stack
0081e538   __STACK_END
0081e540   _main
0081f800   _print_test_results
0081fbac   _print_profile_results
0081fccc   _print_memory_results
0081fdac   _driver_init
0081fe60   __divd
00820980   __printfi
00821200   _fputs
008215c4   _isequal
00821894   _gimme_random
00822400   __divf
00822680   _free
00822900   __divull
00823220   _fputc
00823220   _putc
00823640   _setvbuf
00823bc0   _expf
00823d80   __divul
00823f20   _HOSTrename
008240a0   _malloc
00824220   _open
00824620   __closefile
00824980   _fseek
00824aa0   _ldexpf
00824bc0   _HOSTlseek
00824cc0   __fixdlli
00824dc0   __wrt_ok
00824ec0   _fprintf
00824fc0   _HOSTopen
008250a0   __fltllif
00825180   _atoi
00825260   _close
00825340   _memset
00825420   _printf
00825500   _HOSTread
008255c0   _HOSTunlink
00825680   _HOSTwrite
00825740   __auto_init
008258c0   __c6xabi_divu
008258c0   __divu
00825980   __doflush
00825a40   _exit
00825b00   _ltoa
00825bc0   _HOSTclose
00825c60   __cleanup
00825d00   __divli
00825ee0   __fixdli
00826020   _copy_in
00826160   _lseek
00826200   _memcpy
008263e0   _write
00826480   __fltlid
00826500   __llshl
00826580   _c_int00
00826600   _rand
00826680   _readmsg
00826700   _unlink
00826780   ___TI_cpp_init
008267e0   __subcull
00826840   _fclose
008268a0   _fopen
00826900   _memccpy
00826960   _modff
008269c0   _srand
00826a80   _writemsg
00826ad8   C$$IO$$
00826ae0   ___isinf
00826b60   __args_main
00826ba0   __frcmpyd_div
00826be0   __llshru
00826c20   __remli
00826ca0   ___isinff
00826cc0   __negll
00826ce0   __nop
00826d80   C$$EXIT
00826d80   _abort
00826da0   _remove
00826e00   __sys_memory
0082ee00   ___cinit__
0082ee00   cinit
0082f3c0   const_start
0082f5c8   __ctypes_
0082f748   __CIOBUF_
0082f8a0   _expsp_v
0082fda0   _expsp
0082fec0   _expsp_c
ffffffff   .data
ffffffff   .text
ffffffff   ___TI_pprof_out_hndl
ffffffff   ___TI_prof_data_size
ffffffff   ___TI_prof_data_start
ffffffff   ___binit__
ffffffff   ___c_args__
ffffffff   ___data__
ffffffff   ___edata__
ffffffff   ___etext__
ffffffff   ___pinit__
ffffffff   ___text__
ffffffff   binit
ffffffff   edata
ffffffff   etext
ffffffff   pinit

[147 symbols]
